target datalayout = "e-m:e-p270:32:32-p271:32:32-p272:64:64-i64:64-i128:128-f80:128-n8:16:32:64-S128"
target triple = "x86_64-pc-linux-gnu"

%struct.uat_key_record_t = type { ptr, i8, ptr, [16 x i8] }
%struct.key_record_t = type { i32, ptr, [16 x i8] }

@gp_uat_key_records = internal global ptr null, align 8
@num_uat_key_records = internal global i32 0, align 4
@zbee_gp_keyring = internal global ptr null, align 8

; Function Attrs: alwaysinline nounwind
define internal ptr @memcpy.inline(ptr noalias %0, ptr noalias %1, i64 %2) #5 {
  %4 = alloca ptr, align 8
  %5 = alloca ptr, align 8
  %6 = alloca i64, align 8
  store ptr %0, ptr %4, align 8
  store ptr %1, ptr %5, align 8
  store i64 %2, ptr %6, align 8
  %7 = load ptr, ptr %4, align 8
  %8 = load ptr, ptr %5, align 8
  %9 = load i64, ptr %6, align 8
  %10 = load ptr, ptr %4, align 8
  %11 = call i64 @llvm.objectsize.i64.p0(ptr %10, i1 false, i1 true, i1 true)
  %12 = call ptr @__memcpy_chk(ptr noundef %7, ptr noundef %8, i64 noundef %9, i64 noundef %11) #11
  ret ptr %12
}

; Function Attrs: null_pointer_is_valid sspstrong uwtable
define internal void @gp_init_zbee_security() #1 {
  %1 = alloca i32, align 4
  %2 = alloca %struct.key_record_t, align 8
  call void @llvm.lifetime.start.p0(i64 4, ptr %1) #11
  call void @llvm.lifetime.start.p0(i64 32, ptr %2) #11
  store i32 0, ptr %1, align 4
  br label %3

3:                                                ; preds = %34, %0
  %4 = load ptr, ptr @gp_uat_key_records, align 8
  %5 = icmp ne ptr %4, null
  br i1 %5, label %6, label %10

6:                                                ; preds = %3
  %7 = load i32, ptr %1, align 4
  %8 = load i32, ptr @num_uat_key_records, align 4
  %9 = icmp ult i32 %7, %8
  br label %10

10:                                               ; preds = %6, %3
  %11 = phi i1 [ false, %3 ], [ %9, %6 ]
  br i1 %11, label %12, label %37

12:                                               ; preds = %10
  %13 = getelementptr inbounds nuw %struct.key_record_t, ptr %2, i32 0, i32 0
  store i32 0, ptr %13, align 8
  %14 = load ptr, ptr @gp_uat_key_records, align 8
  %15 = load i32, ptr %1, align 4
  %16 = zext i32 %15 to i64
  %17 = getelementptr %struct.uat_key_record_t, ptr %14, i64 %16
  %18 = getelementptr inbounds nuw %struct.uat_key_record_t, ptr %17, i32 0, i32 2
  %19 = load ptr, ptr %18, align 8
  %20 = call noalias ptr @g_strdup(ptr noundef %19)
  %21 = getelementptr inbounds nuw %struct.key_record_t, ptr %2, i32 0, i32 1
  store ptr %20, ptr %21, align 8
  %22 = getelementptr inbounds nuw %struct.key_record_t, ptr %2, i32 0, i32 2
  %23 = getelementptr inbounds [16 x i8], ptr %22, i64 0, i64 0
  %24 = load ptr, ptr @gp_uat_key_records, align 8
  %25 = load i32, ptr %1, align 4
  %26 = zext i32 %25 to i64
  %27 = getelementptr %struct.uat_key_record_t, ptr %24, i64 %26
  %28 = getelementptr inbounds nuw %struct.uat_key_record_t, ptr %27, i32 0, i32 3
  %29 = getelementptr inbounds [16 x i8], ptr %28, i64 0, i64 0
  %30 = call ptr @memcpy.inline(ptr noundef %23, ptr noundef %29, i64 noundef 16) #11
  %31 = load ptr, ptr @zbee_gp_keyring, align 8
  %32 = call ptr @g_memdup2(ptr noundef %2, i64 noundef 32) #13
  %33 = call ptr @g_slist_prepend(ptr noundef %31, ptr noundef %32)
  store ptr %33, ptr @zbee_gp_keyring, align 8
  br label %34

34:                                               ; preds = %12
  %35 = load i32, ptr %1, align 4
  %36 = add i32 %35, 1
  store i32 %36, ptr %1, align 4
  br label %3, !llvm.loop !10

37:                                               ; preds = %10
  call void @llvm.lifetime.end.p0(i64 32, ptr %2) #11
  call void @llvm.lifetime.end.p0(i64 4, ptr %1) #11
  ret void
}