; Function Attrs: null_pointer_is_valid sspstrong uwtable
define internal void @gp_init_zbee_security() #1 {
  %1 = alloca %struct.key_record_t, align 8
  call void @llvm.lifetime.start.p0(i64 32, ptr nonnull %1) #12
  %2 = load ptr, ptr @gp_uat_key_records, align 8
  %3 = icmp ne ptr %2, null
  %4 = load i32, ptr @num_uat_key_records, align 4
  %5 = icmp ne i32 %4, 0
  %6 = select i1 %3, i1 %5, i1 false
  br i1 %6, label %.lr.ph, label %._crit_edge

.lr.ph:                                           ; preds = %0
  %7 = getelementptr inbounds nuw i8, ptr %1, i64 8
  %8 = getelementptr inbounds nuw i8, ptr %1, i64 16
  br label %9

9:                                                ; preds = %.lr.ph, %9
  %indvars.iv = phi i64 [ 0, %.lr.ph ], [ %indvars.iv.next, %9 ]
  %10 = phi ptr [ %2, %.lr.ph ], [ %19, %9 ]
  store i32 0, ptr %1, align 8
  %11 = getelementptr %struct.uat_key_record_t, ptr %10, i64 %indvars.iv, i32 2
  %12 = load ptr, ptr %11, align 8
  %13 = call noalias ptr @g_strdup(ptr noundef %12)
  store ptr %13, ptr %7, align 8
  %14 = load ptr, ptr @gp_uat_key_records, align 8
  %15 = getelementptr %struct.uat_key_record_t, ptr %14, i64 %indvars.iv, i32 3
  call void @llvm.memcpy.p0.p0.i64(ptr noundef nonnull align 8 dereferenceable(16) %8, ptr noundef align 1 dereferenceable(16) %15, i64 noundef 16, i1 noundef false) #12
  %16 = load ptr, ptr @zbee_gp_keyring, align 8
  %17 = call dereferenceable_or_null(32) ptr @g_memdup2(ptr noundef nonnull %1, i64 noundef 32) #13
  %18 = call ptr @g_slist_prepend(ptr noundef %16, ptr noundef %17)
  store ptr %18, ptr @zbee_gp_keyring, align 8
  %indvars.iv.next = add nuw nsw i64 %indvars.iv, 1
  %19 = load ptr, ptr @gp_uat_key_records, align 8
  %20 = icmp ne ptr %19, null
  %21 = load i32, ptr @num_uat_key_records, align 4
  %22 = zext i32 %21 to i64
  %23 = icmp samesign ult i64 %indvars.iv.next, %22
  %24 = select i1 %20, i1 %23, i1 false
  br i1 %24, label %9, label %._crit_edge, !llvm.loop !10

._crit_edge:                                      ; preds = %9, %0
  call void @llvm.lifetime.end.p0(i64 32, ptr nonnull %1) #12
  ret void
}